; Function Attrs: mustprogress nofree norecurse nounwind willreturn uwtable
define void @_ZN7rocksdb3EnvC2ERKSt10shared_ptrINS_10FileSystemEERKS1_INS_11SystemClockEE(ptr noundef nonnull writeonly align 8 captures(none) dereferenceable(72) initializes((0, 72)) %0, ptr noundef nonnull readonly align 8 captures(none) dereferenceable(16) %1, ptr noundef nonnull readonly align 8 captures(none) dereferenceable(16) %2) unnamed_addr #5 align 2 personality ptr @__gxx_personality_v0 {
  %4 = getelementptr inbounds nuw i8, ptr %0, i64 8
  tail call void @llvm.memset.p0.i64(ptr noundef nonnull align 8 dereferenceable(24) %4, i8 0, i64 24, i1 false)
  store ptr getelementptr inbounds nuw inrange(-16, 680) (i8, ptr @_ZTVN7rocksdb3EnvE, i64 16), ptr %0, align 8, !tbaa !18
  %5 = getelementptr inbounds nuw i8, ptr %0, i64 32
  store ptr null, ptr %5, align 8, !tbaa !53
  %6 = getelementptr inbounds nuw i8, ptr %0, i64 40
  %7 = load ptr, ptr %1, align 8, !tbaa !60
  store ptr %7, ptr %6, align 8, !tbaa !60
  %8 = getelementptr inbounds nuw i8, ptr %0, i64 48
  %9 = getelementptr inbounds nuw i8, ptr %1, i64 8
  %10 = load ptr, ptr %9, align 8, !tbaa !40
  store ptr %10, ptr %8, align 8, !tbaa !40
  %.not.i.i.i = icmp eq ptr %10, null
  br i1 %.not.i.i.i, label %_ZNSt10shared_ptrIN7rocksdb10FileSystemEEC2ERKS2_.exit, label %11

11:                                               ; preds = %3
  %12 = getelementptr inbounds nuw i8, ptr %10, i64 8
  %13 = load i8, ptr @__libc_single_threaded, align 1, !tbaa !17
  %.not.i.i.i.i = icmp eq i8 %13, 0
  br i1 %.not.i.i.i.i, label %17, label %14

14:                                               ; preds = %11
  %15 = load i32, ptr %12, align 4, !tbaa !43
  %16 = add nsw i32 %15, 1
  store i32 %16, ptr %12, align 4, !tbaa !43
  br label %_ZNSt10shared_ptrIN7rocksdb10FileSystemEEC2ERKS2_.exit

17:                                               ; preds = %11
  %18 = atomicrmw volatile add ptr %12, i32 1 acq_rel, align 4
  br label %_ZNSt10shared_ptrIN7rocksdb10FileSystemEEC2ERKS2_.exit

_ZNSt10shared_ptrIN7rocksdb10FileSystemEEC2ERKS2_.exit: ; preds = %3, %14, %17
  %19 = getelementptr inbounds nuw i8, ptr %0, i64 56
  %20 = load ptr, ptr %2, align 8, !tbaa !64
  store ptr %20, ptr %19, align 8, !tbaa !64
  %21 = getelementptr inbounds nuw i8, ptr %0, i64 64
  %22 = getelementptr inbounds nuw i8, ptr %2, i64 8
  %23 = load ptr, ptr %22, align 8, !tbaa !40
  store ptr %23, ptr %21, align 8, !tbaa !40
  %.not.i.i.i3 = icmp eq ptr %23, null
  br i1 %.not.i.i.i3, label %_ZNSt10shared_ptrIN7rocksdb11SystemClockEEC2ERKS2_.exit, label %24

24:                                               ; preds = %_ZNSt10shared_ptrIN7rocksdb10FileSystemEEC2ERKS2_.exit
  %25 = getelementptr inbounds nuw i8, ptr %23, i64 8
  %26 = load i8, ptr @__libc_single_threaded, align 1, !tbaa !17
  %.not.i.i.i.i4 = icmp eq i8 %26, 0
  br i1 %.not.i.i.i.i4, label %30, label %27

27:                                               ; preds = %24
  %28 = load i32, ptr %25, align 4, !tbaa !43
  %29 = add nsw i32 %28, 1
  store i32 %29, ptr %25, align 4, !tbaa !43
  br label %_ZNSt10shared_ptrIN7rocksdb11SystemClockEEC2ERKS2_.exit

30:                                               ; preds = %24
  %31 = atomicrmw volatile add ptr %25, i32 1 acq_rel, align 4
  br label %_ZNSt10shared_ptrIN7rocksdb11SystemClockEEC2ERKS2_.exit

_ZNSt10shared_ptrIN7rocksdb11SystemClockEEC2ERKS2_.exit: ; preds = %_ZNSt10shared_ptrIN7rocksdb10FileSystemEEC2ERKS2_.exit, %27, %30
  ret void
}